; Function Attrs: mustprogress nofree norecurse nosync nounwind sspstrong willreturn memory(readwrite, inaccessiblemem: none) uwtable
define void @_ZN4FLAC8Metadata8CueSheet24set_media_catalog_numberEPKc(ptr nocapture noundef nonnull readonly align 8 dereferenceable(17) %this, ptr nocapture noundef readonly %value) local_unnamed_addr #10 align 2 {
entry:
  %object_ = getelementptr inbounds i8, ptr %this, i64 8
  %0 = load ptr, ptr %object_, align 8
  %data = getelementptr inbounds i8, ptr %0, i64 16
  tail call void @llvm.memcpy.p0.p0.i64(ptr noundef nonnull align 8 dereferenceable(128) %data, ptr noundef nonnull align 1 dereferenceable(128) %value, i64 128, i1 false)
  %1 = load ptr, ptr %object_, align 8
  %arrayidx = getelementptr inbounds i8, ptr %1, i64 144
  store i8 0, ptr %arrayidx, align 8
  ret void
}